target datalayout = "e-m:e-p270:32:32-p271:32:32-p272:64:64-i64:64-i128:128-f80:128-n8:16:32:64-S128"
target triple = "x86_64-pc-linux-gnu"

@.str.9 = private unnamed_addr constant [31 x i8] c"../openssl/test/fake_rsaprov.c\00", align 1
@.str.13 = private unnamed_addr constant [30 x i8] c"*provctx = OSSL_LIB_CTX_new()\00", align 1
@fake_rsa_method = internal constant [3 x { i32, [4 x i8], ptr }] [{ i32, [4 x i8], ptr } { i32 1024, [4 x i8] zeroinitializer, ptr @OSSL_LIB_CTX_free }, { i32, [4 x i8], ptr } { i32 1027, [4 x i8] zeroinitializer, ptr @fake_rsa_query }, { i32, [4 x i8], ptr } zeroinitializer], align 16

; Function Attrs: nounwind uwtable
define internal i32 @fake_rsa_provider_init(ptr noundef %0, ptr noundef %1, ptr noundef %2, ptr noundef %3) #0 {
  %5 = alloca i32, align 4
  %6 = alloca ptr, align 8
  %7 = alloca ptr, align 8
  %8 = alloca ptr, align 8
  %9 = alloca ptr, align 8
  store ptr %0, ptr %6, align 8, !tbaa !13
  store ptr %1, ptr %7, align 8, !tbaa !15
  store ptr %2, ptr %8, align 8, !tbaa !17
  store ptr %3, ptr %9, align 8, !tbaa !19
  %10 = call ptr @OSSL_LIB_CTX_new()
  %11 = load ptr, ptr %9, align 8, !tbaa !19
  store ptr %10, ptr %11, align 8, !tbaa !19
  %12 = call i32 @test_ptr(ptr noundef @.str.9, i32 noundef 734, ptr noundef @.str.13, ptr noundef %10)
  %13 = icmp ne i32 %12, 0
  br i1 %13, label %15, label %14

14:                                               ; preds = %4
  store i32 0, ptr %5, align 4
  br label %17

15:                                               ; preds = %4
  %16 = load ptr, ptr %8, align 8, !tbaa !17
  store ptr @fake_rsa_method, ptr %16, align 8, !tbaa !15
  store i32 1, ptr %5, align 4
  br label %17

17:                                               ; preds = %15, %14
  %18 = load i32, ptr %5, align 4
  ret i32 %18
}