; Function Attrs: nounwind uwtable
define internal range(i32 0, 2) i32 @fake_rsa_provider_init(ptr readnone captures(none) %0, ptr readnone captures(none) %1, ptr noundef writeonly captures(none) %2, ptr noundef writeonly captures(none) initializes((0, 8)) %3) #1 {
  %5 = tail call ptr @OSSL_LIB_CTX_new() #12
  store ptr %5, ptr %3, align 8, !tbaa !4
  %6 = tail call i32 @test_ptr(ptr noundef nonnull @.str.9, i32 noundef 734, ptr noundef nonnull @.str.13, ptr noundef %5) #12
  %.not = icmp eq i32 %6, 0
  br i1 %.not, label %8, label %7

7:                                                ; preds = %4
  store ptr @fake_rsa_method, ptr %2, align 8, !tbaa !8
  br label %8

8:                                                ; preds = %4, %7
  %.0 = phi i32 [ 1, %7 ], [ 0, %4 ]
  ret i32 %.0
}